; ModuleID = '50/1653.c'
source_filename = "50/1653.c"
target datalayout = "e-m:e-p270:32:32-p271:32:32-p272:64:64-i64:64-f80:128-n8:16:32:64-S128"
target triple = "x86_64-pc-linux-gnu"

@.str = private unnamed_addr constant [3 x i8] c"%d\00", align 1
@.str.1 = private unnamed_addr constant [3 x i8] c"1\0A\00", align 1
@.str.2 = private unnamed_addr constant [4 x i8] c"%d\0A\00", align 1

; Function Attrs: noinline nounwind uwtable
define dso_local i32 @main() #0 {
  %1 = alloca i32, align 4
  %2 = alloca i32, align 4
  %3 = alloca i32, align 4
  %4 = alloca i32, align 4
  %5 = alloca i32, align 4
  store i32 0, i32* %1, align 4
  store i32 0, i32* %4, align 4
  %6 = call i32 (i8*, ...) @__isoc99_scanf(i8* getelementptr inbounds ([3 x i8], [3 x i8]* @.str, i64 0, i64 0), i32* %2)
  %7 = load i32, i32* %2, align 4
  %8 = sub nsw i32 5, %7
  store i32 %8, i32* %3, align 4
  %9 = load i32, i32* %3, align 4
  %10 = icmp slt i32 %9, 0
  br i1 %10, label %11, label %14

11:                                               ; preds = %0
  %12 = load i32, i32* %3, align 4
  %13 = add nsw i32 %12, 7
  store i32 %13, i32* %3, align 4
  br label %14

14:                                               ; preds = %11, %0
  %15 = load i32, i32* %3, align 4
  %16 = icmp eq i32 5, %15
  br i1 %16, label %17, label %19

17:                                               ; preds = %14
  %18 = call i32 (i8*, ...) @printf(i8* getelementptr inbounds ([3 x i8], [3 x i8]* @.str.1, i64 0, i64 0))
  br label %19

19:                                               ; preds = %17, %14
  store i32 1, i32* %5, align 4
  br label %20

20:                                               ; preds = %78, %19
  %21 = load i32, i32* %5, align 4
  %22 = icmp slt i32 %21, 12
  br i1 %22, label %23, label %81

23:                                               ; preds = %20
  %24 = load i32, i32* %5, align 4
  %25 = icmp eq i32 %24, 1
  br i1 %25, label %41, label %26

26:                                               ; preds = %23
  %27 = load i32, i32* %5, align 4
  %28 = icmp eq i32 %27, 3
  br i1 %28, label %41, label %29

29:                                               ; preds = %26
  %30 = load i32, i32* %5, align 4
  %31 = icmp eq i32 %30, 5
  br i1 %31, label %41, label %32

32:                                               ; preds = %29
  %33 = load i32, i32* %5, align 4
  %34 = icmp eq i32 %33, 7
  br i1 %34, label %41, label %35

35:                                               ; preds = %32
  %36 = load i32, i32* %5, align 4
  %37 = icmp eq i32 %36, 8
  br i1 %37, label %41, label %38

38:                                               ; preds = %35
  %39 = load i32, i32* %5, align 4
  %40 = icmp eq i32 %39, 10
  br i1 %40, label %41, label %44

41:                                               ; preds = %38, %35, %32, %29, %26, %23
  %42 = load i32, i32* %4, align 4
  %43 = add nsw i32 %42, 31
  store i32 %43, i32* %4, align 4
  br label %67

44:                                               ; preds = %38
  %45 = load i32, i32* %5, align 4
  %46 = icmp eq i32 %45, 4
  br i1 %46, label %56, label %47

47:                                               ; preds = %44
  %48 = load i32, i32* %5, align 4
  %49 = icmp eq i32 %48, 6
  br i1 %49, label %56, label %50

50:                                               ; preds = %47
  %51 = load i32, i32* %5, align 4
  %52 = icmp eq i32 %51, 9
  br i1 %52, label %56, label %53

53:                                               ; preds = %50
  %54 = load i32, i32* %5, align 4
  %55 = icmp eq i32 %54, 11
  br i1 %55, label %56, label %59

56:                                               ; preds = %53, %50, %47, %44
  %57 = load i32, i32* %4, align 4
  %58 = add nsw i32 %57, 30
  store i32 %58, i32* %4, align 4
  br label %66

59:                                               ; preds = %53
  %60 = load i32, i32* %5, align 4
  %61 = icmp eq i32 %60, 2
  br i1 %61, label %62, label %65

62:                                               ; preds = %59
  %63 = load i32, i32* %4, align 4
  %64 = add nsw i32 %63, 28
  store i32 %64, i32* %4, align 4
  br label %65

65:                                               ; preds = %62, %59
  br label %66

66:                                               ; preds = %65, %56
  br label %67

67:                                               ; preds = %66, %41
  %68 = load i32, i32* %4, align 4
  %69 = add nsw i32 %68, 12
  %70 = srem i32 %69, 7
  %71 = load i32, i32* %3, align 4
  %72 = icmp eq i32 %70, %71
  br i1 %72, label %73, label %77

73:                                               ; preds = %67
  %74 = load i32, i32* %5, align 4
  %75 = add nsw i32 %74, 1
  %76 = call i32 (i8*, ...) @printf(i8* getelementptr inbounds ([4 x i8], [4 x i8]* @.str.2, i64 0, i64 0), i32 %75)
  br label %77

77:                                               ; preds = %73, %67
  br label %78

78:                                               ; preds = %77
  %79 = load i32, i32* %5, align 4
  %80 = add nsw i32 %79, 1
  store i32 %80, i32* %5, align 4
  br label %20

81:                                               ; preds = %20
  ret i32 0
}

declare dso_local i32 @__isoc99_scanf(i8*, ...) #1

declare dso_local i32 @printf(i8*, ...) #1


!llvm.module.flags = !{!0}
!llvm.ident = !{!1}

!0 = !{i32 1, !"wchar_size", i32 4}
!1 = !{!"clang version 10.0.0-4ubuntu1 "}
